(lp0
(S'arduino_libraries_dir'
p1
S'/usr/share/arduino/libraries'
p2
tp3
a(S'cxx'
p4
S'/usr/bin/avr-g++'
p5
tp6
a(S'stty'
p7
S'/bin/stty'
p8
tp9
a(S'version.txt'
p10
S'/usr/share/arduino/lib/version.txt'
p11
tp12
a(S'used_libs'
p13
(lp14
S'/usr/share/arduino/libraries/Ethernet'
p15
aS'/usr/share/arduino/libraries/SPI'
p16
aS'/usr/share/arduino/hardware/arduino/cores/arduino'
p17
atp18
a(S'cc'
p19
S'/usr/bin/avr-gcc'
p20
tp21
a(S'build_dir'
p22
S'.build/uno'
p23
tp24
a(S'arduino_core_dir'
p25
g17
tp26
a(S'boards.txt'
p27
S'/usr/share/arduino/hardware/arduino/boards.txt'
p28
tp29
a(S'cxxflags'
p30
ccopy_reg
_reconstructor
p31
(cino.utils
SpaceList
p32
c__builtin__
list
p33
(lp34
S'-fno-exceptions'
p35
atp36
Rp37
tp38
a(S'arduino_variants_dir'
p39
S'/usr/share/arduino/hardware/arduino/variants'
p40
tp41
a(S'avrdude'
p42
S'/usr/share/arduino/hardware/tools/avrdude'
p43
tp44
a(S'avrdude.conf'
p45
S'/usr/share/arduino/hardware/tools/avrdude.conf'
p46
tp47
a(S'names'
p48
(dp49
S'cpp'
p50
S'%s.cpp'
p51
sS'obj'
p52
S'%s.o'
p53
sS'deps'
p54
S'%s.d'
p55
sS'lib'
p56
S'lib%s.a'
p57
stp58
a(S'cflags'
p59
g31
(g32
g33
(lp60
S'-mmcu=atmega328p'
p61
aS'-ffunction-sections'
p62
aS'-fdata-sections'
p63
aS'-g'
p64
aS'-Os'
p65
aS'-w'
p66
aS'-DF_CPU=16000000L'
p67
aS'-DARDUINO=100'
p68
aS'-I/usr/share/arduino/hardware/arduino/cores/arduino'
p69
aS'-I/usr/share/arduino/hardware/arduino/variants/standard'
p70
aS'-I/usr/share/arduino/libraries/Ethernet'
p71
aS'-I/usr/share/arduino/libraries/Ethernet/utility'
p72
aS'-I/usr/share/arduino/libraries/SPI'
p73
aS'-I/usr/share/arduino/hardware/arduino/cores/arduino'
p74
atp75
Rp76
tp77
a(S'elfflags'
p78
g31
(g32
g33
(lp79
g65
aS'-Wl,--gc-sections'
p80
ag61
atp81
Rp82
tp83
a(S'arduino_lib_version'
p84
g31
(cino.environment
Version
p85
c__builtin__
tuple
p86
(I1
I0
tp87
tp88
Rp89
tp90
a(S'objcopy'
p91
S'/usr/bin/avr-objcopy'
p92
tp93
a(S'ar'
p94
S'/usr/bin/avr-ar'
p95
tp96
a(S'board_models'
p97
cino.environment
BoardModels
p98
((lp99
(lp100
S'uno'
p101
a(dp102
S'bootloader'
p103
(dp104
S'extended_fuses'
p105
S'0x05'
p106
sS'high_fuses'
p107
S'0xde'
p108
sS'low_fuses'
p109
S'0xff'
p110
sS'lock_bits'
p111
S'0x0F'
p112
sS'file'
p113
S'optiboot_atmega328.hex'
p114
sS'path'
p115
S'optiboot'
p116
sS'unlock_bits'
p117
S'0x3F'
p118
ssS'upload'
p119
(dp120
S'speed'
p121
S'115200'
p122
sS'maximum_size'
p123
S'32256'
p124
sS'protocol'
p125
S'arduino'
p126
ssS'name'
p127
S'Arduino Uno'
p128
sS'build'
p129
(dp130
S'core'
p131
S'arduino'
p132
sS'mcu'
p133
S'atmega328p'
p134
sS'f_cpu'
p135
S'16000000L'
p136
sS'variant'
p137
S'standard'
p138
ssaa(lp139
S'atmega328'
p140
a(dp141
S'bootloader'
p142
(dp143
S'extended_fuses'
p144
S'0x05'
p145
sS'high_fuses'
p146
S'0xDA'
p147
sS'low_fuses'
p148
S'0xFF'
p149
sS'lock_bits'
p150
S'0x0F'
p151
sS'file'
p152
S'ATmegaBOOT_168_atmega328.hex'
p153
sS'path'
p154
S'atmega'
p155
sS'unlock_bits'
p156
S'0x3F'
p157
ssS'upload'
p158
(dp159
S'speed'
p160
S'57600'
p161
sS'maximum_size'
p162
S'30720'
p163
sS'protocol'
p164
S'arduino'
p165
ssS'name'
p166
S'Arduino Duemilanove w/ ATmega328'
p167
sS'build'
p168
(dp169
S'core'
p170
S'arduino'
p171
sS'mcu'
p172
S'atmega328p'
p173
sS'f_cpu'
p174
S'16000000L'
p175
sS'variant'
p176
S'standard'
p177
ssaa(lp178
S'diecimila'
p179
a(dp180
S'bootloader'
p181
(dp182
S'extended_fuses'
p183
S'0x00'
p184
sS'high_fuses'
p185
S'0xdd'
p186
sS'low_fuses'
p187
S'0xff'
p188
sS'lock_bits'
p189
S'0x0F'
p190
sS'file'
p191
S'ATmegaBOOT_168_diecimila.hex'
p192
sS'path'
p193
S'atmega'
p194
sS'unlock_bits'
p195
S'0x3F'
p196
ssS'upload'
p197
(dp198
S'speed'
p199
S'19200'
p200
sS'maximum_size'
p201
S'14336'
p202
sS'protocol'
p203
S'arduino'
p204
ssS'name'
p205
S'Arduino Diecimila or Duemilanove w/ ATmega168'
p206
sS'build'
p207
(dp208
S'core'
p209
S'arduino'
p210
sS'mcu'
p211
S'atmega168'
p212
sS'f_cpu'
p213
S'16000000L'
p214
sS'variant'
p215
S'standard'
p216
ssaa(lp217
S'nano328'
p218
a(dp219
S'bootloader'
p220
(dp221
S'extended_fuses'
p222
S'0x05'
p223
sS'high_fuses'
p224
S'0xDA'
p225
sS'low_fuses'
p226
S'0xFF'
p227
sS'lock_bits'
p228
S'0x0F'
p229
sS'file'
p230
S'ATmegaBOOT_168_atmega328.hex'
p231
sS'path'
p232
S'atmega'
p233
sS'unlock_bits'
p234
S'0x3F'
p235
ssS'upload'
p236
(dp237
S'speed'
p238
S'57600'
p239
sS'maximum_size'
p240
S'30720'
p241
sS'protocol'
p242
S'arduino'
p243
ssS'name'
p244
S'Arduino Nano w/ ATmega328'
p245
sS'build'
p246
(dp247
S'core'
p248
S'arduino'
p249
sS'mcu'
p250
S'atmega328p'
p251
sS'f_cpu'
p252
S'16000000L'
p253
sS'variant'
p254
S'eightanaloginputs'
p255
ssaa(lp256
S'nano'
p257
a(dp258
S'bootloader'
p259
(dp260
S'extended_fuses'
p261
S'0x00'
p262
sS'high_fuses'
p263
S'0xdd'
p264
sS'low_fuses'
p265
S'0xff'
p266
sS'lock_bits'
p267
S'0x0F'
p268
sS'file'
p269
S'ATmegaBOOT_168_diecimila.hex'
p270
sS'path'
p271
S'atmega'
p272
sS'unlock_bits'
p273
S'0x3F'
p274
ssS'upload'
p275
(dp276
S'speed'
p277
S'19200'
p278
sS'maximum_size'
p279
S'14336'
p280
sS'protocol'
p281
S'arduino'
p282
ssS'name'
p283
S'Arduino Nano w/ ATmega168'
p284
sS'build'
p285
(dp286
S'core'
p287
S'arduino'
p288
sS'mcu'
p289
S'atmega168'
p290
sS'f_cpu'
p291
S'16000000L'
p292
sS'variant'
p293
S'eightanaloginputs'
p294
ssaa(lp295
S'mega2560'
p296
a(dp297
S'bootloader'
p298
(dp299
S'extended_fuses'
p300
S'0xFD'
p301
sS'high_fuses'
p302
S'0xD8'
p303
sS'low_fuses'
p304
S'0xFF'
p305
sS'lock_bits'
p306
S'0x0F'
p307
sS'file'
p308
S'stk500boot_v2_mega2560.hex'
p309
sS'path'
p310
S'stk500v2'
p311
sS'unlock_bits'
p312
S'0x3F'
p313
ssS'upload'
p314
(dp315
S'speed'
p316
S'115200'
p317
sS'maximum_size'
p318
S'258048'
p319
sS'protocol'
p320
S'stk500v2'
p321
ssS'name'
p322
S'Arduino Mega 2560 or Mega ADK'
p323
sS'build'
p324
(dp325
S'core'
p326
S'arduino'
p327
sS'mcu'
p328
S'atmega2560'
p329
sS'f_cpu'
p330
S'16000000L'
p331
sS'variant'
p332
S'mega'
p333
ssaa(lp334
S'mega'
p335
a(dp336
S'bootloader'
p337
(dp338
S'extended_fuses'
p339
S'0xF5'
p340
sS'high_fuses'
p341
S'0xDA'
p342
sS'low_fuses'
p343
S'0xFF'
p344
sS'lock_bits'
p345
S'0x0F'
p346
sS'file'
p347
S'ATmegaBOOT_168_atmega1280.hex'
p348
sS'path'
p349
S'atmega'
p350
sS'unlock_bits'
p351
S'0x3F'
p352
ssS'upload'
p353
(dp354
S'speed'
p355
S'57600'
p356
sS'maximum_size'
p357
S'126976'
p358
sS'protocol'
p359
S'arduino'
p360
ssS'name'
p361
S'Arduino Mega (ATmega1280)'
p362
sS'build'
p363
(dp364
S'core'
p365
S'arduino'
p366
sS'mcu'
p367
S'atmega1280'
p368
sS'f_cpu'
p369
S'16000000L'
p370
sS'variant'
p371
S'mega'
p372
ssaa(lp373
S'mini328'
p374
a(dp375
S'bootloader'
p376
(dp377
S'extended_fuses'
p378
S'0x05'
p379
sS'high_fuses'
p380
S'0xd8'
p381
sS'low_fuses'
p382
S'0xff'
p383
sS'lock_bits'
p384
S'0x0F'
p385
sS'file'
p386
S'optiboot_atmega328-Mini.hex'
p387
sS'path'
p388
S'optiboot'
p389
sS'unlock_bits'
p390
S'0x3F'
p391
ssS'upload'
p392
(dp393
S'speed'
p394
S'115200'
p395
sS'maximum_size'
p396
S'28672'
p397
sS'protocol'
p398
S'stk500'
p399
ssS'name'
p400
S'Arduino Mini w/ ATmega328'
p401
sS'build'
p402
(dp403
S'core'
p404
S'arduino'
p405
sS'mcu'
p406
S'atmega328p'
p407
sS'f_cpu'
p408
S'16000000L'
p409
sS'variant'
p410
S'eightanaloginputs'
p411
ssaa(lp412
S'mini'
p413
a(dp414
S'bootloader'
p415
(dp416
S'extended_fuses'
p417
S'0x00'
p418
sS'high_fuses'
p419
S'0xdd'
p420
sS'low_fuses'
p421
S'0xff'
p422
sS'lock_bits'
p423
S'0x0F'
p424
sS'file'
p425
S'ATmegaBOOT_168_ng.hex'
p426
sS'path'
p427
S'atmega'
p428
sS'unlock_bits'
p429
S'0x3F'
p430
ssS'upload'
p431
(dp432
S'speed'
p433
S'19200'
p434
sS'maximum_size'
p435
S'14336'
p436
sS'protocol'
p437
S'arduino'
p438
ssS'name'
p439
S'Arduino Mini w/ ATmega168'
p440
sS'build'
p441
(dp442
S'core'
p443
S'arduino'
p444
sS'mcu'
p445
S'atmega168'
p446
sS'f_cpu'
p447
S'16000000L'
p448
sS'variant'
p449
S'eightanaloginputs'
p450
ssaa(lp451
S'ethernet'
p452
a(dp453
S'bootloader'
p454
(dp455
S'extended_fuses'
p456
S'0x05'
p457
sS'high_fuses'
p458
S'0xde'
p459
sS'low_fuses'
p460
S'0xff'
p461
sS'lock_bits'
p462
S'0x0F'
p463
sS'file'
p464
S'optiboot_atmega328.hex'
p465
sS'path'
p466
S'optiboot'
p467
sS'unlock_bits'
p468
S'0x3F'
p469
ssS'upload'
p470
(dp471
S'speed'
p472
S'115200'
p473
sS'maximum_size'
p474
S'32256'
p475
sS'protocol'
p476
S'arduino'
p477
ssS'name'
p478
S'Arduino Ethernet'
p479
sS'build'
p480
(dp481
S'f_cpu'
p482
S'16000000L'
p483
sS'mcu'
p484
S'atmega328p'
p485
sS'variant'
p486
S'standard'
p487
sS'core'
p488
S'arduino'
p489
ssaa(lp490
S'fio'
p491
a(dp492
S'bootloader'
p493
(dp494
S'extended_fuses'
p495
S'0x05'
p496
sS'high_fuses'
p497
S'0xDA'
p498
sS'low_fuses'
p499
S'0xFF'
p500
sS'lock_bits'
p501
S'0x0F'
p502
sS'file'
p503
S'ATmegaBOOT_168_atmega328_pro_8MHz.hex'
p504
sS'path'
p505
S'arduino:atmega'
p506
sS'unlock_bits'
p507
S'0x3F'
p508
ssS'upload'
p509
(dp510
S'speed'
p511
S'57600'
p512
sS'maximum_size'
p513
S'30720'
p514
sS'protocol'
p515
S'arduino'
p516
ssS'name'
p517
S'Arduino Fio'
p518
sS'build'
p519
(dp520
S'core'
p521
S'arduino'
p522
sS'mcu'
p523
S'atmega328p'
p524
sS'f_cpu'
p525
S'8000000L'
p526
sS'variant'
p527
S'eightanaloginputs'
p528
ssaa(lp529
S'bt328'
p530
a(dp531
S'bootloader'
p532
(dp533
S'extended_fuses'
p534
S'0x05'
p535
sS'high_fuses'
p536
S'0xd8'
p537
sS'low_fuses'
p538
S'0xff'
p539
sS'lock_bits'
p540
S'0x0F'
p541
sS'file'
p542
S'ATmegaBOOT_168_atmega328_bt.hex'
p543
sS'path'
p544
S'bt'
p545
sS'unlock_bits'
p546
S'0x3F'
p547
ssS'upload'
p548
(dp549
S'speed'
p550
S'19200'
p551
sS'maximum_size'
p552
S'28672'
p553
sS'protocol'
p554
S'arduino'
p555
sS'disable_flushing'
p556
S'true'
p557
ssS'name'
p558
S'Arduino BT w/ ATmega328'
p559
sS'build'
p560
(dp561
S'core'
p562
S'arduino'
p563
sS'mcu'
p564
S'atmega328p'
p565
sS'f_cpu'
p566
S'16000000L'
p567
sS'variant'
p568
S'eightanaloginputs'
p569
ssaa(lp570
S'bt'
p571
a(dp572
S'bootloader'
p573
(dp574
S'extended_fuses'
p575
S'0x00'
p576
sS'high_fuses'
p577
S'0xdd'
p578
sS'low_fuses'
p579
S'0xff'
p580
sS'lock_bits'
p581
S'0x0F'
p582
sS'file'
p583
S'ATmegaBOOT_168.hex'
p584
sS'path'
p585
S'bt'
p586
sS'unlock_bits'
p587
S'0x3F'
p588
ssS'upload'
p589
(dp590
S'speed'
p591
S'19200'
p592
sS'maximum_size'
p593
S'14336'
p594
sS'protocol'
p595
S'arduino'
p596
sS'disable_flushing'
p597
S'true'
p598
ssS'name'
p599
S'Arduino BT w/ ATmega168'
p600
sS'build'
p601
(dp602
S'core'
p603
S'arduino'
p604
sS'mcu'
p605
S'atmega168'
p606
sS'f_cpu'
p607
S'16000000L'
p608
sS'variant'
p609
S'eightanaloginputs'
p610
ssaa(lp611
S'lilypad328'
p612
a(dp613
S'bootloader'
p614
(dp615
S'extended_fuses'
p616
S'0x05'
p617
sS'high_fuses'
p618
S'0xDA'
p619
sS'low_fuses'
p620
S'0xFF'
p621
sS'lock_bits'
p622
S'0x0F'
p623
sS'file'
p624
S'ATmegaBOOT_168_atmega328_pro_8MHz.hex'
p625
sS'path'
p626
S'atmega'
p627
sS'unlock_bits'
p628
S'0x3F'
p629
ssS'upload'
p630
(dp631
S'speed'
p632
S'57600'
p633
sS'maximum_size'
p634
S'30720'
p635
sS'protocol'
p636
S'arduino'
p637
ssS'name'
p638
S'LilyPad Arduino w/ ATmega328'
p639
sS'build'
p640
(dp641
S'core'
p642
S'arduino'
p643
sS'mcu'
p644
S'atmega328p'
p645
sS'f_cpu'
p646
S'8000000L'
p647
sS'variant'
p648
S'standard'
p649
ssaa(lp650
S'lilypad'
p651
a(dp652
S'bootloader'
p653
(dp654
S'extended_fuses'
p655
S'0x00'
p656
sS'high_fuses'
p657
S'0xdd'
p658
sS'low_fuses'
p659
S'0xe2'
p660
sS'lock_bits'
p661
S'0x0F'
p662
sS'file'
p663
S'LilyPadBOOT_168.hex'
p664
sS'path'
p665
S'lilypad'
p666
sS'unlock_bits'
p667
S'0x3F'
p668
ssS'upload'
p669
(dp670
S'speed'
p671
S'19200'
p672
sS'maximum_size'
p673
S'14336'
p674
sS'protocol'
p675
S'arduino'
p676
ssS'name'
p677
S'LilyPad Arduino w/ ATmega168'
p678
sS'build'
p679
(dp680
S'core'
p681
S'arduino'
p682
sS'mcu'
p683
S'atmega168'
p684
sS'f_cpu'
p685
S'8000000L'
p686
sS'variant'
p687
S'standard'
p688
ssaa(lp689
S'pro5v328'
p690
a(dp691
S'bootloader'
p692
(dp693
S'extended_fuses'
p694
S'0x05'
p695
sS'high_fuses'
p696
S'0xDA'
p697
sS'low_fuses'
p698
S'0xFF'
p699
sS'lock_bits'
p700
S'0x0F'
p701
sS'file'
p702
S'ATmegaBOOT_168_atmega328.hex'
p703
sS'path'
p704
S'atmega'
p705
sS'unlock_bits'
p706
S'0x3F'
p707
ssS'upload'
p708
(dp709
S'speed'
p710
S'57600'
p711
sS'maximum_size'
p712
S'30720'
p713
sS'protocol'
p714
S'arduino'
p715
ssS'name'
p716
S'Arduino Pro or Pro Mini (5V, 16 MHz) w/ ATmega328'
p717
sS'build'
p718
(dp719
S'core'
p720
S'arduino'
p721
sS'mcu'
p722
S'atmega328p'
p723
sS'f_cpu'
p724
S'16000000L'
p725
sS'variant'
p726
S'standard'
p727
ssaa(lp728
S'pro5v'
p729
a(dp730
S'bootloader'
p731
(dp732
S'extended_fuses'
p733
S'0x00'
p734
sS'high_fuses'
p735
S'0xdd'
p736
sS'low_fuses'
p737
S'0xff'
p738
sS'lock_bits'
p739
S'0x0F'
p740
sS'file'
p741
S'ATmegaBOOT_168_diecimila.hex'
p742
sS'path'
p743
S'atmega'
p744
sS'unlock_bits'
p745
S'0x3F'
p746
ssS'upload'
p747
(dp748
S'speed'
p749
S'19200'
p750
sS'maximum_size'
p751
S'14336'
p752
sS'protocol'
p753
S'arduino'
p754
ssS'name'
p755
S'Arduino Pro or Pro Mini (5V, 16 MHz) w/ ATmega168'
p756
sS'build'
p757
(dp758
S'core'
p759
S'arduino'
p760
sS'mcu'
p761
S'atmega168'
p762
sS'f_cpu'
p763
S'16000000L'
p764
sS'variant'
p765
S'standard'
p766
ssaa(lp767
S'pro328'
p768
a(dp769
S'bootloader'
p770
(dp771
S'extended_fuses'
p772
S'0x05'
p773
sS'high_fuses'
p774
S'0xDA'
p775
sS'low_fuses'
p776
S'0xFF'
p777
sS'lock_bits'
p778
S'0x0F'
p779
sS'file'
p780
S'ATmegaBOOT_168_atmega328_pro_8MHz.hex'
p781
sS'path'
p782
S'atmega'
p783
sS'unlock_bits'
p784
S'0x3F'
p785
ssS'upload'
p786
(dp787
S'speed'
p788
S'57600'
p789
sS'maximum_size'
p790
S'30720'
p791
sS'protocol'
p792
S'arduino'
p793
ssS'name'
p794
S'Arduino Pro or Pro Mini (3.3V, 8 MHz) w/ ATmega328'
p795
sS'build'
p796
(dp797
S'core'
p798
S'arduino'
p799
sS'mcu'
p800
S'atmega328p'
p801
sS'f_cpu'
p802
S'8000000L'
p803
sS'variant'
p804
S'standard'
p805
ssaa(lp806
S'pro'
p807
a(dp808
S'bootloader'
p809
(dp810
S'extended_fuses'
p811
S'0x00'
p812
sS'high_fuses'
p813
S'0xdd'
p814
sS'low_fuses'
p815
S'0xc6'
p816
sS'lock_bits'
p817
S'0x0F'
p818
sS'file'
p819
S'ATmegaBOOT_168_pro_8MHz.hex'
p820
sS'path'
p821
S'atmega'
p822
sS'unlock_bits'
p823
S'0x3F'
p824
ssS'upload'
p825
(dp826
S'speed'
p827
S'19200'
p828
sS'maximum_size'
p829
S'14336'
p830
sS'protocol'
p831
S'arduino'
p832
ssS'name'
p833
S'Arduino Pro or Pro Mini (3.3V, 8 MHz) w/ ATmega168'
p834
sS'build'
p835
(dp836
S'core'
p837
S'arduino'
p838
sS'mcu'
p839
S'atmega168'
p840
sS'f_cpu'
p841
S'8000000L'
p842
sS'variant'
p843
S'standard'
p844
ssaa(lp845
S'atmega168'
p846
a(dp847
S'bootloader'
p848
(dp849
S'extended_fuses'
p850
S'0x00'
p851
sS'high_fuses'
p852
S'0xdd'
p853
sS'low_fuses'
p854
S'0xff'
p855
sS'lock_bits'
p856
S'0x0F'
p857
sS'file'
p858
S'ATmegaBOOT_168_ng.hex'
p859
sS'path'
p860
S'atmega'
p861
sS'unlock_bits'
p862
S'0x3F'
p863
ssS'upload'
p864
(dp865
S'speed'
p866
S'19200'
p867
sS'maximum_size'
p868
S'14336'
p869
sS'protocol'
p870
S'arduino'
p871
ssS'name'
p872
S'Arduino NG or older w/ ATmega168'
p873
sS'build'
p874
(dp875
S'core'
p876
S'arduino'
p877
sS'mcu'
p878
S'atmega168'
p879
sS'f_cpu'
p880
S'16000000L'
p881
sS'variant'
p882
S'standard'
p883
ssaa(lp884
S'atmega8'
p885
a(dp886
S'bootloader'
p887
(dp888
S'high_fuses'
p889
S'0xca'
p890
sS'low_fuses'
p891
S'0xdf'
p892
sS'lock_bits'
p893
S'0x0F'
p894
sS'file'
p895
S'ATmegaBOOT.hex'
p896
sS'path'
p897
S'atmega8'
p898
sS'unlock_bits'
p899
S'0x3F'
p900
ssS'upload'
p901
(dp902
S'speed'
p903
S'19200'
p904
sS'maximum_size'
p905
S'7168'
p906
sS'protocol'
p907
S'arduino'
p908
ssS'name'
p909
S'Arduino NG or older w/ ATmega8'
p910
sS'build'
p911
(dp912
S'core'
p913
S'arduino'
p914
sS'mcu'
p915
S'atmega8'
p916
sS'f_cpu'
p917
S'16000000L'
p918
sS'variant'
p919
S'standard'
p920
ssaatp921
Rp922
(dp923
S'default'
p924
S'uno'
p925
sbtp926
a(g54
g31
(g32
g33
(lp927
S'.build/uno/src/dependencies.d'
p928
aS'.build/uno/arduino/dependencies.d'
p929
aS'.build/uno/SPI/dependencies.d'
p930
aS'.build/uno/Ethernet/dependencies.d'
p931
atp932
Rp933
tp934
a.